; Function Attrs: mustprogress nounwind uwtable
define internal fastcc void @_ZNSt6vectorIN3gmx15analysismodules12_GLOBAL__N_17t_donorESaIS3_EED2Ev(ptr nocapture noundef nonnull readonly align 8 dereferenceable(24) %0) unnamed_addr #6 align 2 personality ptr @__gxx_personality_v0 {
  %2 = load ptr, ptr %0, align 8
  %3 = getelementptr inbounds i8, ptr %0, i64 8
  %4 = load ptr, ptr %3, align 8
  %.not4.i.i.i = icmp eq ptr %2, %4
  br i1 %.not4.i.i.i, label %_ZSt8_DestroyIPN3gmx15analysismodules12_GLOBAL__N_17t_donorES3_EvT_S5_RSaIT0_E.exit, label %.lr.ph.i.i.i

.lr.ph.i.i.i:                                     ; preds = %1, %_ZSt8_DestroyIN3gmx15analysismodules12_GLOBAL__N_17t_donorEEvPT_.exit.i.i.i
  %.05.i.i.i = phi ptr [ %7, %_ZSt8_DestroyIN3gmx15analysismodules12_GLOBAL__N_17t_donorEEvPT_.exit.i.i.i ], [ %2, %1 ]
  %5 = getelementptr i8, ptr %.05.i.i.i, i64 8
  %.0.val.i.i.i = load ptr, ptr %5, align 8
  %.not.i.i.i.i.i.i.i.i = icmp eq ptr %.0.val.i.i.i, null
  br i1 %.not.i.i.i.i.i.i.i.i, label %_ZSt8_DestroyIN3gmx15analysismodules12_GLOBAL__N_17t_donorEEvPT_.exit.i.i.i, label %6

6:                                                ; preds = %.lr.ph.i.i.i
  tail call void @_ZdlPv(ptr noundef nonnull %.0.val.i.i.i) #27
  br label %_ZSt8_DestroyIN3gmx15analysismodules12_GLOBAL__N_17t_donorEEvPT_.exit.i.i.i

_ZSt8_DestroyIN3gmx15analysismodules12_GLOBAL__N_17t_donorEEvPT_.exit.i.i.i: ; preds = %6, %.lr.ph.i.i.i
  %7 = getelementptr inbounds i8, ptr %.05.i.i.i, i64 40
  %.not.i.i.i = icmp eq ptr %7, %4
  br i1 %.not.i.i.i, label %_ZSt8_DestroyIPN3gmx15analysismodules12_GLOBAL__N_17t_donorES3_EvT_S5_RSaIT0_E.exitthread-pre-split, label %.lr.ph.i.i.i, !llvm.loop !7

_ZSt8_DestroyIPN3gmx15analysismodules12_GLOBAL__N_17t_donorES3_EvT_S5_RSaIT0_E.exitthread-pre-split: ; preds = %_ZSt8_DestroyIN3gmx15analysismodules12_GLOBAL__N_17t_donorEEvPT_.exit.i.i.i
  %.val.pr = load ptr, ptr %0, align 8
  br label %_ZSt8_DestroyIPN3gmx15analysismodules12_GLOBAL__N_17t_donorES3_EvT_S5_RSaIT0_E.exit

_ZSt8_DestroyIPN3gmx15analysismodules12_GLOBAL__N_17t_donorES3_EvT_S5_RSaIT0_E.exit: ; preds = %_ZSt8_DestroyIPN3gmx15analysismodules12_GLOBAL__N_17t_donorES3_EvT_S5_RSaIT0_E.exitthread-pre-split, %1
  %.val = phi ptr [ %.val.pr, %_ZSt8_DestroyIPN3gmx15analysismodules12_GLOBAL__N_17t_donorES3_EvT_S5_RSaIT0_E.exitthread-pre-split ], [ %2, %1 ]
  %.not.i.i = icmp eq ptr %.val, null
  br i1 %.not.i.i, label %_ZNSt12_Vector_baseIN3gmx15analysismodules12_GLOBAL__N_17t_donorESaIS3_EED2Ev.exit, label %8

8:                                                ; preds = %_ZSt8_DestroyIPN3gmx15analysismodules12_GLOBAL__N_17t_donorES3_EvT_S5_RSaIT0_E.exit
  tail call void @_ZdlPv(ptr noundef nonnull %.val) #27
  br label %_ZNSt12_Vector_baseIN3gmx15analysismodules12_GLOBAL__N_17t_donorESaIS3_EED2Ev.exit

_ZNSt12_Vector_baseIN3gmx15analysismodules12_GLOBAL__N_17t_donorESaIS3_EED2Ev.exit: ; preds = %_ZSt8_DestroyIPN3gmx15analysismodules12_GLOBAL__N_17t_donorES3_EvT_S5_RSaIT0_E.exit, %8
  ret void
}